; Function Attrs: mustprogress uwtable
define void @_ZN7rocksdb3log22FragmentBufferedReader9UnmarkEOFEv(ptr nocapture noundef nonnull align 8 dereferenceable(273) %this) unnamed_addr #3 align 2 {
entry:
  %read_error_ = getelementptr inbounds i8, ptr %this, i64 73
  %0 = load i8, ptr %read_error_, align 1
  %1 = and i8 %0, 1
  %tobool.not = icmp eq i8 %1, 0
  br i1 %tobool.not, label %if.end, label %return

if.end:                                           ; preds = %entry
  %eof_ = getelementptr inbounds i8, ptr %this, i64 72
  store i8 0, ptr %eof_, align 8
  tail call void @_ZN7rocksdb3log6Reader17UnmarkEOFInternalEv(ptr noundef nonnull align 8 dereferenceable(240) %this)
  br label %return

return:                                           ; preds = %entry, %if.end
  ret void
}